target datalayout = "e-m:e-p270:32:32-p271:32:32-p272:64:64-i64:64-i128:128-f80:128-n8:16:32:64-S128"
target triple = "x86_64-pc-linux-gnu"

%class.Node_Array = type { ptr, i32, ptr }
%class.Phase = type { i32, ptr }
%class.Node = type <{ ptr, ptr, ptr, i32, i32, i32, i32, i32, i32, i32, [4 x i8] }>
%class.VectorSet = type { i32, ptr, i32, ptr }
%class.PhaseStringOpts = type { %class.Phase, ptr, %class.Unique_Node_List, i32, %class.VectorSet }
%class.Unique_Node_List = type <{ %class.Node_List.base, [4 x i8], %class.VectorSet, i32, [4 x i8] }>
%class.Node_List.base = type <{ %class.Node_Array, i32 }>
%class.MultiNode.base = type { %class.Node.base }
%class.Node.base = type <{ ptr, ptr, ptr, i32, i32, i32, i32, i32, i32, i32 }>
%class.ReplacedNodes = type { ptr }
%class.GraphKit = type <{ ptr, %class.Phase, ptr, ptr, ptr, ptr, i32, [4 x i8], ptr, ptr, i32, [4 x i8] }>
%class.PreserveReexecuteState = type { ptr, i32, i32 }
%class.JVMState = type { ptr, i32, i32, i32, i32, i32, i32, i32, i32, i32, ptr, ptr }
%class.SafePointNode = type <{ %class.MultiNode.base, [4 x i8], ptr, ptr, %class.ReplacedNodes, i8, [7 x i8] }>

; Function Attrs: mustprogress nounwind uwtable
define linkonce_odr hidden noundef ptr @_ZNK4Node16as_AllocateArrayEv(ptr noundef nonnull align 8 dereferenceable(52) %0) #1 comdat align 2 {
  %2 = alloca ptr, align 8
  store ptr %0, ptr %2, align 8
  %3 = load ptr, ptr %2, align 8
  ret ptr %3
}

; Function Attrs: mustprogress nounwind uwtable
define linkonce_odr hidden noundef zeroext i1 @_ZNK4Node16is_AllocateArrayEv(ptr noundef nonnull align 8 dereferenceable(52) %0) #1 comdat align 2 {
  %2 = alloca ptr, align 8
  store ptr %0, ptr %2, align 8
  %3 = load ptr, ptr %2, align 8
  %4 = getelementptr inbounds %class.Node, ptr %3, i32 0, i32 8
  %5 = load i32, ptr %4, align 4
  %6 = and i32 %5, 127
  %7 = icmp eq i32 %6, 103
  ret i1 %7
}

; Function Attrs: mustprogress nounwind uwtable
define linkonce_odr hidden noundef ptr @_ZNK8GraphKit12map_not_nullEv(ptr noundef nonnull align 8 dereferenceable(84) %0) #1 comdat align 2 {
  %2 = alloca ptr, align 8
  store ptr %0, ptr %2, align 8
  %3 = load ptr, ptr %2, align 8
  %4 = getelementptr inbounds %class.GraphKit, ptr %3, i32 0, i32 4
  %5 = load ptr, ptr %4, align 8
  ret ptr %5
}

; Function Attrs: mustprogress nounwind uwtable
define linkonce_odr hidden noundef ptr @_ZN17AllocateArrayNode22Ideal_array_allocationEP4Node(ptr noundef %0) #1 comdat align 2 {
  %2 = alloca ptr, align 8
  %3 = alloca ptr, align 8
  store ptr %0, ptr %2, align 8
  %4 = load ptr, ptr %2, align 8
  %5 = call noundef ptr @_ZN12AllocateNode16Ideal_allocationEP4Node(ptr noundef %4)
  store ptr %5, ptr %3, align 8
  %6 = load ptr, ptr %3, align 8
  %7 = icmp eq ptr %6, null
  br i1 %7, label %11, label %8

8:                                                ; preds = %1
  %9 = load ptr, ptr %3, align 8
  %10 = call noundef zeroext i1 @_ZNK4Node16is_AllocateArrayEv(ptr noundef nonnull align 8 dereferenceable(52) %9)
  br i1 %10, label %12, label %11

11:                                               ; preds = %8, %1
  br label %15

12:                                               ; preds = %8
  %13 = load ptr, ptr %3, align 8
  %14 = call noundef ptr @_ZNK4Node16as_AllocateArrayEv(ptr noundef nonnull align 8 dereferenceable(52) %13)
  br label %15

15:                                               ; preds = %12, %11
  %16 = phi ptr [ null, %11 ], [ %14, %12 ]
  ret ptr %16
}

; Function Attrs: mustprogress nounwind uwtable
define linkonce_odr hidden noundef ptr @_ZNK8GraphKit7makeconEPK4Type(ptr noundef nonnull align 8 dereferenceable(84) %0, ptr noundef %1) #1 comdat align 2 {
  %3 = alloca ptr, align 8
  %4 = alloca ptr, align 8
  store ptr %0, ptr %3, align 8
  store ptr %1, ptr %4, align 8
  %5 = load ptr, ptr %3, align 8
  %6 = getelementptr inbounds %class.GraphKit, ptr %5, i32 0, i32 3
  %7 = load ptr, ptr %6, align 8
  %8 = load ptr, ptr %4, align 8
  %9 = call noundef ptr @_ZN11PhaseValues7makeconEPK4Type(ptr noundef nonnull align 8 dereferenceable(2400) %7, ptr noundef %8)
  ret ptr %9
}

; Function Attrs: mustprogress nounwind uwtable
define linkonce_odr hidden void @_ZN8JVMState20set_should_reexecuteEb(ptr noundef nonnull align 8 dereferenceable(64) %0, i1 noundef zeroext %1) #1 comdat align 2 {
  %3 = alloca ptr, align 8
  %4 = alloca i8, align 1
  store ptr %0, ptr %3, align 8
  %5 = zext i1 %1 to i8
  store i8 %5, ptr %4, align 1
  %6 = load ptr, ptr %3, align 8
  %7 = load i8, ptr %4, align 1
  %8 = trunc i8 %7 to i1
  %9 = select i1 %8, i32 1, i32 0
  %10 = getelementptr inbounds %class.JVMState, ptr %6, i32 0, i32 9
  store i32 %9, ptr %10, align 8
  ret void
}

; Function Attrs: mustprogress nounwind uwtable
define linkonce_odr hidden noundef ptr @_ZNK8GraphKit4jvmsEv(ptr noundef nonnull align 8 dereferenceable(84) %0) #1 comdat align 2 {
  %2 = alloca ptr, align 8
  store ptr %0, ptr %2, align 8
  %3 = load ptr, ptr %2, align 8
  %4 = call noundef ptr @_ZNK8GraphKit12map_not_nullEv(ptr noundef nonnull align 8 dereferenceable(84) %3)
  %5 = getelementptr inbounds %class.SafePointNode, ptr %4, i32 0, i32 2
  %6 = load ptr, ptr %5, align 8
  ret ptr %6
}

; Function Attrs: mustprogress nounwind uwtable
define hidden noundef ptr @_ZN15PhaseStringOpts19allocate_byte_arrayER8GraphKitP8IdealKitP4Node(ptr noundef nonnull align 8 dereferenceable(136) %0, ptr noundef nonnull align 8 dereferenceable(84) %1, ptr noundef %2, ptr noundef %3) #1 align 2 {
  %5 = alloca ptr, align 8
  %6 = alloca ptr, align 8
  %7 = alloca ptr, align 8
  %8 = alloca ptr, align 8
  %9 = alloca ptr, align 8
  %10 = alloca %class.PreserveReexecuteState, align 8
  %11 = alloca ptr, align 8
  store ptr %0, ptr %5, align 8
  store ptr %1, ptr %6, align 8
  store ptr %2, ptr %7, align 8
  store ptr %3, ptr %8, align 8
  %12 = load ptr, ptr %5, align 8
  %13 = load ptr, ptr %7, align 8
  %14 = icmp ne ptr %13, null
  br i1 %14, label %15, label %18

15:                                               ; preds = %4
  %16 = load ptr, ptr %6, align 8
  %17 = load ptr, ptr %7, align 8
  call void @_ZN8GraphKit8sync_kitER8IdealKit(ptr noundef nonnull align 8 dereferenceable(84) %16, ptr noundef nonnull align 8 dereferenceable(64) %17)
  br label %18

18:                                               ; preds = %15, %4
  store ptr null, ptr %9, align 8
  %19 = load ptr, ptr %6, align 8
  call void @_ZN22PreserveReexecuteStateC1EP8GraphKit(ptr noundef nonnull align 8 dereferenceable(16) %10, ptr noundef %19)
  %20 = load ptr, ptr %6, align 8
  %21 = call noundef ptr @_ZNK8GraphKit4jvmsEv(ptr noundef nonnull align 8 dereferenceable(84) %20)
  call void @_ZN8JVMState20set_should_reexecuteEb(ptr noundef nonnull align 8 dereferenceable(64) %21, i1 noundef zeroext true)
  %22 = load ptr, ptr %6, align 8
  %23 = load ptr, ptr %6, align 8
  %24 = call noundef ptr @_ZN16ciTypeArrayKlass4makeE9BasicType(i8 noundef zeroext 8)
  %25 = call noundef ptr @_ZN12TypeKlassPtr4makeEP7ciKlassN4Type17InterfaceHandlingE(ptr noundef %24, i32 noundef 1)
  %26 = call noundef ptr @_ZNK8GraphKit7makeconEPK4Type(ptr noundef nonnull align 8 dereferenceable(84) %23, ptr noundef %25)
  %27 = load ptr, ptr %8, align 8
  %28 = call noundef ptr @_ZN8GraphKit9new_arrayEP4NodeS1_iPS1_b(ptr noundef nonnull align 8 dereferenceable(84) %22, ptr noundef %26, ptr noundef %27, i32 noundef 1, ptr noundef null, i1 noundef zeroext false)
  store ptr %28, ptr %9, align 8
  call void @_ZN22PreserveReexecuteStateD1Ev(ptr noundef nonnull align 8 dereferenceable(16) %10) #9
  %29 = load ptr, ptr %9, align 8
  %30 = call noundef ptr @_ZN17AllocateArrayNode22Ideal_array_allocationEP4Node(ptr noundef %29)
  store ptr %30, ptr %11, align 8
  %31 = load ptr, ptr %11, align 8
  %32 = getelementptr inbounds %class.PhaseStringOpts, ptr %12, i32 0, i32 1
  %33 = load ptr, ptr %32, align 8
  %34 = call noundef zeroext i1 @_ZN12AllocateNode18maybe_set_completeEP8PhaseGVN(ptr noundef nonnull align 8 dereferenceable(131) %31, ptr noundef %33)
  %35 = load ptr, ptr %7, align 8
  %36 = icmp ne ptr %35, null
  br i1 %36, label %37, label %40

37:                                               ; preds = %18
  %38 = load ptr, ptr %7, align 8
  %39 = load ptr, ptr %6, align 8
  call void @_ZN8IdealKit8sync_kitEP8GraphKit(ptr noundef nonnull align 8 dereferenceable(64) %38, ptr noundef %39)
  br label %40

40:                                               ; preds = %37, %18
  %41 = load ptr, ptr %9, align 8
  ret ptr %41
}