; Function Attrs: mustprogress nounwind uwtable
define hidden noundef ptr @_ZN15PhaseStringOpts19allocate_byte_arrayER8GraphKitP8IdealKitP4Node(ptr nocapture noundef nonnull readonly align 8 dereferenceable(136) %0, ptr noundef nonnull align 8 dereferenceable(84) %1, ptr noundef %2, ptr noundef %3) local_unnamed_addr #0 align 2 {
  %5 = alloca %class.PreserveReexecuteState, align 8
  %.not = icmp eq ptr %2, null
  br i1 %.not, label %_ZN17AllocateArrayNode22Ideal_array_allocationEP4Node.exit, label %6

6:                                                ; preds = %4
  tail call void @_ZN8GraphKit8sync_kitER8IdealKit(ptr noundef nonnull align 8 dereferenceable(84) %1, ptr noundef nonnull align 8 dereferenceable(64) %2) #11
  br label %_ZN17AllocateArrayNode22Ideal_array_allocationEP4Node.exit

_ZN17AllocateArrayNode22Ideal_array_allocationEP4Node.exit: ; preds = %6, %4
  call void @_ZN22PreserveReexecuteStateC1EP8GraphKit(ptr noundef nonnull align 8 dereferenceable(16) %5, ptr noundef nonnull %1) #11
  %7 = getelementptr inbounds i8, ptr %1, i64 40
  %8 = load ptr, ptr %7, align 8
  %9 = getelementptr inbounds i8, ptr %8, i64 56
  %10 = load ptr, ptr %9, align 8
  %11 = getelementptr inbounds i8, ptr %10, i64 40
  store i32 1, ptr %11, align 8
  %12 = call noundef ptr @_ZN16ciTypeArrayKlass4makeE9BasicType(i8 noundef zeroext 8) #11
  %13 = call noundef ptr @_ZN12TypeKlassPtr4makeEP7ciKlassN4Type17InterfaceHandlingE(ptr noundef %12, i32 noundef 1) #11
  %14 = getelementptr inbounds i8, ptr %1, i64 32
  %15 = load ptr, ptr %14, align 8
  %16 = call noundef ptr @_ZN11PhaseValues7makeconEPK4Type(ptr noundef nonnull align 8 dereferenceable(2400) %15, ptr noundef %13) #11
  %17 = call noundef ptr @_ZN8GraphKit9new_arrayEP4NodeS1_iPS1_b(ptr noundef nonnull align 8 dereferenceable(84) %1, ptr noundef %16, ptr noundef %3, i32 noundef 1, ptr noundef null, i1 noundef zeroext false) #11
  call void @_ZN22PreserveReexecuteStateD1Ev(ptr noundef nonnull align 8 dereferenceable(16) %5) #11
  %18 = call noundef ptr @_ZN12AllocateNode16Ideal_allocationEP4Node(ptr noundef %17) #11
  %19 = icmp ne ptr %18, null
  call void @llvm.assume(i1 %19)
  %20 = getelementptr inbounds i8, ptr %18, i64 44
  %21 = load i32, ptr %20, align 4
  %22 = and i32 %21, 127
  %23 = icmp eq i32 %22, 103
  %spec.select.i = select i1 %23, ptr %18, ptr null
  %24 = getelementptr inbounds i8, ptr %0, i64 16
  %25 = load ptr, ptr %24, align 8
  %26 = call noundef zeroext i1 @_ZN12AllocateNode18maybe_set_completeEP8PhaseGVN(ptr noundef nonnull align 8 dereferenceable(131) %spec.select.i, ptr noundef %25) #11
  br i1 %.not, label %28, label %27

27:                                               ; preds = %_ZN17AllocateArrayNode22Ideal_array_allocationEP4Node.exit
  call void @_ZN8IdealKit8sync_kitEP8GraphKit(ptr noundef nonnull align 8 dereferenceable(64) %2, ptr noundef nonnull %1) #11
  br label %28

28:                                               ; preds = %27, %_ZN17AllocateArrayNode22Ideal_array_allocationEP4Node.exit
  ret ptr %17
}